; Function Attrs: nounwind uwtable
define dso_local i64 @range_contains_elem_support(ptr noundef readonly captures(none) %0) local_unnamed_addr #0 {
  %2 = getelementptr inbounds nuw i8, ptr %0, i64 32
  %3 = load i64, ptr %2, align 8
  %4 = inttoptr i64 %3 to ptr
  %5 = load i32, ptr %4, align 4
  %6 = icmp eq i32 %5, 456
  br i1 %6, label %7, label %20

7:                                                ; preds = %1
  %8 = getelementptr inbounds nuw i8, ptr %4, i64 16
  %9 = load ptr, ptr %8, align 8
  %10 = getelementptr inbounds nuw i8, ptr %9, i64 32
  %11 = load ptr, ptr %10, align 8
  %12 = getelementptr i8, ptr %11, i64 16
  %.val10 = load ptr, ptr %12, align 8
  %13 = load ptr, ptr %.val10, align 8
  %14 = getelementptr inbounds nuw i8, ptr %.val10, i64 8
  %15 = load ptr, ptr %14, align 8
  %16 = getelementptr inbounds nuw i8, ptr %4, i64 8
  %17 = load ptr, ptr %16, align 8
  %18 = tail call fastcc ptr @find_simplified_clause(ptr noundef %17, ptr noundef %13, ptr noundef %15)
  %19 = ptrtoint ptr %18 to i64
  br label %20

20:                                               ; preds = %7, %1
  %.0 = phi i64 [ %19, %7 ], [ 0, %1 ]
  ret i64 %.0
}